; Function Attrs: nounwind sspstrong uwtable
define dso_local noundef ptr @tcg_op_insert_after(ptr noundef writeonly captures(none) %0, ptr noundef %1, i32 noundef %2, i32 noundef %3) local_unnamed_addr #0 {
  %5 = tail call align 8 ptr @llvm.threadlocal.address.p0(ptr align 8 @tcg_ctx)
  %6 = load ptr, ptr %5, align 8
  %7 = getelementptr inbounds nuw i8, ptr %6, i64 29360
  %8 = load ptr, ptr %7, align 8
  %.not.i = icmp eq ptr %8, null
  br i1 %.not.i, label %.loopexit.i, label %.preheader.i, !prof !21

.preheader.i:                                     ; preds = %4, %27
  %.03238.i = phi ptr [ %13, %27 ], [ %8, %4 ]
  %9 = load i32, ptr %.03238.i, align 8
  %10 = lshr i32 %9, 8
  %11 = and i32 %10, 255
  %.not35.i = icmp ugt i32 %3, %11
  %12 = getelementptr inbounds nuw i8, ptr %.03238.i, i64 8
  %13 = load ptr, ptr %12, align 8
  %.not34.i = icmp eq ptr %13, null
  br i1 %.not35.i, label %27, label %14

14:                                               ; preds = %.preheader.i
  %15 = getelementptr inbounds nuw i8, ptr %.03238.i, i64 8
  %16 = getelementptr inbounds nuw i8, ptr %.03238.i, i64 16
  %17 = load ptr, ptr %16, align 8
  br i1 %.not34.i, label %20, label %18

18:                                               ; preds = %14
  %19 = getelementptr inbounds nuw i8, ptr %13, i64 16
  store ptr %17, ptr %19, align 8
  br label %22

20:                                               ; preds = %14
  %21 = getelementptr inbounds nuw i8, ptr %6, i64 29368
  store ptr %17, ptr %21, align 8
  br label %22

22:                                               ; preds = %20, %18
  %23 = load ptr, ptr %15, align 8
  store ptr %23, ptr %17, align 8
  tail call void @llvm.memset.p0.i64(ptr noundef nonnull align 8 dereferenceable(16) %15, i8 0, i64 16, i1 false)
  %24 = load i32, ptr %.03238.i, align 8
  %25 = lshr i32 %24, 8
  %26 = and i32 %25, 255
  br label %tcg_op_alloc.exit

27:                                               ; preds = %.preheader.i
  br i1 %.not34.i, label %.loopexit.i, label %.preheader.i, !llvm.loop !22

.loopexit.i:                                      ; preds = %27, %4
  %28 = tail call i32 @llvm.umax.i32(i32 %3, i32 4)
  %29 = shl i32 %28, 3
  %30 = add i32 %29, 39
  %31 = sdiv i32 %30, 8
  %32 = shl nsw i32 %31, 3
  %33 = load ptr, ptr %6, align 8
  %34 = sext i32 %32 to i64
  %35 = getelementptr inbounds i8, ptr %33, i64 %34
  %36 = getelementptr inbounds nuw i8, ptr %6, i64 8
  %37 = load ptr, ptr %36, align 8
  %38 = icmp ugt ptr %35, %37
  br i1 %38, label %39, label %41, !prof !4

39:                                               ; preds = %.loopexit.i
  %40 = tail call ptr @tcg_malloc_internal(ptr noundef nonnull %6, i32 noundef %32)
  br label %tcg_op_alloc.exit

41:                                               ; preds = %.loopexit.i
  store ptr %35, ptr %6, align 8
  br label %tcg_op_alloc.exit

tcg_op_alloc.exit:                                ; preds = %22, %39, %41
  %.1.i = phi ptr [ %.03238.i, %22 ], [ %40, %39 ], [ %33, %41 ]
  %.0.i = phi i32 [ %26, %22 ], [ %28, %39 ], [ %28, %41 ]
  store i64 0, ptr %.1.i, align 1
  %42 = and i32 %2, 255
  %43 = shl nuw nsw i32 %.0.i, 8
  %44 = or disjoint i32 %42, %43
  store i32 %44, ptr %.1.i, align 8
  %45 = icmp ult i32 %.0.i, 256
  tail call void @llvm.assume(i1 %45)
  %46 = getelementptr inbounds nuw i8, ptr %6, i64 56
  %47 = load i32, ptr %46, align 8
  %48 = add i32 %47, 1
  store i32 %48, ptr %46, align 8
  %49 = load i32, ptr %1, align 8
  %50 = and i32 %49, 16711680
  %51 = load i32, ptr %.1.i, align 8
  %52 = and i32 %51, -16711681
  %53 = or disjoint i32 %52, %50
  store i32 %53, ptr %.1.i, align 8
  %54 = getelementptr inbounds nuw i8, ptr %1, i64 8
  %55 = load ptr, ptr %54, align 8
  %56 = getelementptr inbounds nuw i8, ptr %.1.i, i64 8
  store ptr %55, ptr %56, align 8
  %.not = icmp eq ptr %55, null
  br i1 %.not, label %59, label %57

57:                                               ; preds = %tcg_op_alloc.exit
  %58 = getelementptr inbounds nuw i8, ptr %55, i64 16
  store ptr %56, ptr %58, align 8
  br label %61

59:                                               ; preds = %tcg_op_alloc.exit
  %60 = getelementptr inbounds nuw i8, ptr %0, i64 29352
  store ptr %56, ptr %60, align 8
  br label %61

61:                                               ; preds = %59, %57
  store ptr %.1.i, ptr %54, align 8
  %62 = getelementptr inbounds nuw i8, ptr %.1.i, i64 16
  store ptr %54, ptr %62, align 8
  ret ptr %.1.i
}